target datalayout = "e-m:e-p270:32:32-p271:32:32-p272:64:64-i64:64-i128:128-f80:128-n8:16:32:64-S128"
target triple = "x86_64-pc-linux-gnu"

@hf_message_type = internal global i32 0, align 4
@hf_serial = internal global i32 0, align 4
@hf_data_size = internal global i32 0, align 4
@hf_data_sublist = internal global i32 0, align 4
@ett_common_client_message = internal global i32 0, align 4
@.str.755 = private unnamed_addr constant [22 x i8] c"Message type: %s (%d)\00", align 1

; Function Attrs: null_pointer_is_valid sspstrong uwtable
define internal void @dissect_spice_data_header(ptr noundef %0, ptr noundef %1, ptr noundef %2, i1 noundef zeroext %3, i16 noundef zeroext %4, ptr noundef %5, ptr noundef %6, i32 noundef %7) #0 {
  %9 = alloca ptr, align 8
  %10 = alloca ptr, align 8
  %11 = alloca ptr, align 8
  %12 = alloca i8, align 1
  %13 = alloca i16, align 2
  %14 = alloca ptr, align 8
  %15 = alloca ptr, align 8
  %16 = alloca i32, align 4
  %17 = alloca ptr, align 8
  store ptr %0, ptr %9, align 8
  store ptr %1, ptr %10, align 8
  store ptr %2, ptr %11, align 8
  %18 = zext i1 %3 to i8
  store i8 %18, ptr %12, align 1
  store i16 %4, ptr %13, align 2
  store ptr %5, ptr %14, align 8
  store ptr %6, ptr %15, align 8
  store i32 %7, ptr %16, align 4
  call void @llvm.lifetime.start.p0(i64 8, ptr %17) #6
  %19 = load ptr, ptr %9, align 8
  %20 = load i32, ptr %16, align 4
  %21 = add i32 %20, 14
  %22 = call i32 @tvb_get_letohl(ptr noundef %19, i32 noundef %21)
  %23 = load ptr, ptr %15, align 8
  store i32 %22, ptr %23, align 4
  %24 = load ptr, ptr %10, align 8
  %25 = icmp ne ptr %24, null
  br i1 %25, label %26, label %66

26:                                               ; preds = %8
  %27 = load ptr, ptr %10, align 8
  %28 = load i32, ptr @hf_serial, align 4
  %29 = load ptr, ptr %9, align 8
  %30 = load i32, ptr %16, align 4
  %31 = call ptr @proto_tree_add_item(ptr noundef %27, i32 noundef %28, ptr noundef %29, i32 noundef %30, i32 noundef 8, i32 noundef -2147483648)
  %32 = load i32, ptr %16, align 4
  %33 = add i32 %32, 8
  store i32 %33, ptr %16, align 4
  %34 = load ptr, ptr %10, align 8
  %35 = load ptr, ptr %9, align 8
  %36 = load i32, ptr %16, align 4
  %37 = load i32, ptr @ett_common_client_message, align 4
  %38 = load i16, ptr %13, align 2
  %39 = load ptr, ptr %11, align 8
  %40 = load i8, ptr %12, align 1, !range !6, !noundef !7
  %41 = trunc i8 %40 to i1
  %42 = call ptr @get_message_type_string(i16 noundef zeroext %38, ptr noundef %39, i1 noundef zeroext %41)
  %43 = load i16, ptr %13, align 2
  %44 = zext i16 %43 to i32
  %45 = call ptr (ptr, ptr, i32, i32, i32, ptr, ptr, ...) @proto_tree_add_subtree_format(ptr noundef %34, ptr noundef %35, i32 noundef %36, i32 noundef 2, i32 noundef %37, ptr noundef null, ptr noundef @.str.755, ptr noundef %42, i32 noundef %44)
  store ptr %45, ptr %17, align 8
  %46 = load ptr, ptr %17, align 8
  %47 = load i32, ptr @hf_message_type, align 4
  %48 = load ptr, ptr %9, align 8
  %49 = load i32, ptr %16, align 4
  %50 = call ptr @proto_tree_add_item(ptr noundef %46, i32 noundef %47, ptr noundef %48, i32 noundef %49, i32 noundef 2, i32 noundef -2147483648)
  %51 = load ptr, ptr %14, align 8
  store ptr %50, ptr %51, align 8
  %52 = load i32, ptr %16, align 4
  %53 = add i32 %52, 2
  store i32 %53, ptr %16, align 4
  %54 = load ptr, ptr %10, align 8
  %55 = load i32, ptr @hf_data_size, align 4
  %56 = load ptr, ptr %9, align 8
  %57 = load i32, ptr %16, align 4
  %58 = call ptr @proto_tree_add_item(ptr noundef %54, i32 noundef %55, ptr noundef %56, i32 noundef %57, i32 noundef 4, i32 noundef -2147483648)
  %59 = load i32, ptr %16, align 4
  %60 = add i32 %59, 4
  store i32 %60, ptr %16, align 4
  %61 = load ptr, ptr %10, align 8
  %62 = load i32, ptr @hf_data_sublist, align 4
  %63 = load ptr, ptr %9, align 8
  %64 = load i32, ptr %16, align 4
  %65 = call ptr @proto_tree_add_item(ptr noundef %61, i32 noundef %62, ptr noundef %63, i32 noundef %64, i32 noundef 4, i32 noundef -2147483648)
  br label %66

66:                                               ; preds = %26, %8
  call void @llvm.lifetime.end.p0(i64 8, ptr %17) #6
  ret void
}