; Function Attrs: null_pointer_is_valid sspstrong uwtable
define internal fastcc void @dissect_spice_data_header(ptr noundef %0, ptr noundef %1, ptr noundef readonly captures(none) %2, i1 noundef zeroext %3, i16 noundef zeroext %4, ptr noundef writeonly captures(none) %5, ptr noundef writeonly captures(none) initializes((0, 4)) %6, i32 noundef %7) unnamed_addr #0 {
  %9 = add i32 %7, 14
  %10 = tail call i32 @tvb_get_letohl(ptr noundef %0, i32 noundef %9)
  store i32 %10, ptr %6, align 4
  %.not = icmp eq ptr %1, null
  br i1 %.not, label %26, label %11

11:                                               ; preds = %8
  %12 = load i32, ptr @hf_serial, align 4
  %13 = tail call ptr @proto_tree_add_item(ptr noundef nonnull %1, i32 noundef %12, ptr noundef %0, i32 noundef %7, i32 noundef 8, i32 noundef -2147483648)
  %14 = add i32 %7, 8
  %15 = load i32, ptr @ett_common_client_message, align 4
  %16 = tail call fastcc ptr @get_message_type_string(i16 noundef zeroext %4, ptr noundef %2, i1 noundef zeroext %3)
  %17 = zext i16 %4 to i32
  %18 = tail call ptr (ptr, ptr, i32, i32, i32, ptr, ptr, ...) @proto_tree_add_subtree_format(ptr noundef nonnull %1, ptr noundef %0, i32 noundef %14, i32 noundef 2, i32 noundef %15, ptr noundef null, ptr noundef nonnull @.str.755, ptr noundef %16, i32 noundef %17)
  %19 = load i32, ptr @hf_message_type, align 4
  %20 = tail call ptr @proto_tree_add_item(ptr noundef %18, i32 noundef %19, ptr noundef %0, i32 noundef %14, i32 noundef 2, i32 noundef -2147483648)
  store ptr %20, ptr %5, align 8
  %21 = add i32 %7, 10
  %22 = load i32, ptr @hf_data_size, align 4
  %23 = tail call ptr @proto_tree_add_item(ptr noundef nonnull %1, i32 noundef %22, ptr noundef %0, i32 noundef %21, i32 noundef 4, i32 noundef -2147483648)
  %24 = load i32, ptr @hf_data_sublist, align 4
  %25 = tail call ptr @proto_tree_add_item(ptr noundef nonnull %1, i32 noundef %24, ptr noundef %0, i32 noundef %9, i32 noundef 4, i32 noundef -2147483648)
  br label %26

26:                                               ; preds = %11, %8
  ret void
}